; Function Attrs: mustprogress uwtable
define void @_ZN7rocksdb21PersistentCacheHelper16InsertSerializedERKNS_22PersistentCacheOptionsERKNS_11BlockHandleEPKcm(ptr noundef nonnull align 8 dereferenceable(40) %0, ptr noundef nonnull align 8 dereferenceable(16) %1, ptr noundef %2, i64 noundef %3) local_unnamed_addr #4 align 2 personality ptr @__gxx_personality_v0 {
  %5 = alloca %"class.rocksdb::CacheKey", align 8
  %6 = alloca %"class.rocksdb::Status", align 8
  %7 = alloca %"class.rocksdb::Slice", align 8
  call void @llvm.lifetime.start.p0(i64 16, ptr nonnull %5) #13
  %8 = getelementptr inbounds nuw i8, ptr %0, i64 16
  %9 = tail call { i64, i64 } @_ZN7rocksdb15BlockBasedTable11GetCacheKeyERKNS_18OffsetableCacheKeyERKNS_11BlockHandleE(ptr noundef nonnull align 8 dereferenceable(16) %8, ptr noundef nonnull align 8 dereferenceable(16) %1)
  %10 = extractvalue { i64, i64 } %9, 0
  store i64 %10, ptr %5, align 8
  %11 = getelementptr inbounds nuw i8, ptr %5, i64 8
  %12 = extractvalue { i64, i64 } %9, 1
  store i64 %12, ptr %11, align 8
  call void @llvm.lifetime.start.p0(i64 16, ptr nonnull %6) #13
  %13 = load ptr, ptr %0, align 8, !tbaa !23
  call void @llvm.lifetime.start.p0(i64 16, ptr nonnull %7) #13
  store ptr %5, ptr %7, align 8
  %14 = getelementptr inbounds nuw i8, ptr %7, i64 8
  store i64 16, ptr %14, align 8
  %15 = load ptr, ptr %13, align 8, !tbaa !18
  %16 = getelementptr inbounds nuw i8, ptr %15, i64 16
  %17 = load ptr, ptr %16, align 8
  call void %17(ptr dead_on_unwind nonnull writable sret(%"class.rocksdb::Status") align 8 %6, ptr noundef nonnull align 8 dereferenceable(8) %13, ptr noundef nonnull align 8 dereferenceable(16) %7, ptr noundef %2, i64 noundef %3)
  %18 = getelementptr inbounds nuw i8, ptr %6, i64 8
  %19 = load ptr, ptr %18, align 8, !tbaa !26
  %.not.i.i = icmp eq ptr %19, null
  br i1 %.not.i.i, label %_ZN7rocksdb6StatusD2Ev.exit, label %_ZNKSt14default_deleteIA_KcEclIS0_EENSt9enable_ifIXsr14is_convertibleIPA_T_PS1_EE5valueEvE4typeEPS5_.exit.i.i

_ZNKSt14default_deleteIA_KcEclIS0_EENSt9enable_ifIXsr14is_convertibleIPA_T_PS1_EE5valueEvE4typeEPS5_.exit.i.i: ; preds = %4
  call void @_ZdaPv(ptr noundef nonnull %19) #12
  br label %_ZN7rocksdb6StatusD2Ev.exit

_ZN7rocksdb6StatusD2Ev.exit:                      ; preds = %4, %_ZNKSt14default_deleteIA_KcEclIS0_EENSt9enable_ifIXsr14is_convertibleIPA_T_PS1_EE5valueEvE4typeEPS5_.exit.i.i
  call void @llvm.lifetime.end.p0(i64 16, ptr nonnull %7) #13
  call void @llvm.lifetime.end.p0(i64 16, ptr nonnull %6) #13
  call void @llvm.lifetime.end.p0(i64 16, ptr nonnull %5) #13
  ret void
}